target datalayout = "e-m:e-p270:32:32-p271:32:32-p272:64:64-i64:64-i128:128-f80:128-n8:16:32:64-S128"
target triple = "x86_64-pc-linux-gnu"

@.str = private unnamed_addr constant [2 x i8] c" \00", align 1
@.str.11 = private unnamed_addr constant [42 x i8] c"%sData type: PMIX_PID\09Value: NULL pointer\00", align 1
@.str.12 = private unnamed_addr constant [33 x i8] c"%sData type: PMIX_PID\09Value: %lu\00", align 1

; Function Attrs: nounwind uwtable
define i32 @pmix20_bfrop_print_pid(ptr noundef %0, ptr noundef %1, ptr noundef %2, i16 noundef zeroext %3) #0 {
  %5 = alloca i32, align 4
  %6 = alloca ptr, align 8
  %7 = alloca ptr, align 8
  %8 = alloca ptr, align 8
  %9 = alloca i16, align 2
  %10 = alloca ptr, align 8
  %11 = alloca i32, align 4
  store ptr %0, ptr %6, align 8, !tbaa !3
  store ptr %1, ptr %7, align 8, !tbaa !8
  store ptr %2, ptr %8, align 8, !tbaa !36
  store i16 %3, ptr %9, align 2, !tbaa !11
  call void @llvm.lifetime.start.p0(i64 8, ptr %10) #7
  %12 = load ptr, ptr %7, align 8, !tbaa !8
  %13 = icmp eq ptr null, %12
  br i1 %13, label %14, label %19

14:                                               ; preds = %4
  %15 = call i32 (ptr, ptr, ...) @asprintf(ptr noundef %10, ptr noundef @.str) #7
  %16 = icmp sgt i32 0, %15
  br i1 %16, label %17, label %18

17:                                               ; preds = %14
  store i32 -32, ptr %5, align 4
  store i32 1, ptr %11, align 4
  br label %53

18:                                               ; preds = %14
  br label %21

19:                                               ; preds = %4
  %20 = load ptr, ptr %7, align 8, !tbaa !8
  store ptr %20, ptr %10, align 8, !tbaa !8
  br label %21

21:                                               ; preds = %19, %18
  %22 = load ptr, ptr %8, align 8, !tbaa !36
  %23 = icmp eq ptr null, %22
  br i1 %23, label %24, label %37

24:                                               ; preds = %21
  %25 = load ptr, ptr %6, align 8, !tbaa !3
  %26 = load ptr, ptr %10, align 8, !tbaa !8
  %27 = call i32 (ptr, ptr, ...) @asprintf(ptr noundef %25, ptr noundef @.str.11, ptr noundef %26) #7
  %28 = icmp sgt i32 0, %27
  br i1 %28, label %29, label %30

29:                                               ; preds = %24
  store i32 -32, ptr %5, align 4
  store i32 1, ptr %11, align 4
  br label %53

30:                                               ; preds = %24
  %31 = load ptr, ptr %10, align 8, !tbaa !8
  %32 = load ptr, ptr %7, align 8, !tbaa !8
  %33 = icmp ne ptr %31, %32
  br i1 %33, label %34, label %36

34:                                               ; preds = %30
  %35 = load ptr, ptr %10, align 8, !tbaa !8
  call void @free(ptr noundef %35) #7
  br label %36

36:                                               ; preds = %34, %30
  store i32 0, ptr %5, align 4
  store i32 1, ptr %11, align 4
  br label %53

37:                                               ; preds = %21
  %38 = load ptr, ptr %6, align 8, !tbaa !3
  %39 = load ptr, ptr %10, align 8, !tbaa !8
  %40 = load ptr, ptr %8, align 8, !tbaa !36
  %41 = load i32, ptr %40, align 4, !tbaa !21
  %42 = sext i32 %41 to i64
  %43 = call i32 (ptr, ptr, ...) @asprintf(ptr noundef %38, ptr noundef @.str.12, ptr noundef %39, i64 noundef %42) #7
  %44 = icmp sgt i32 0, %43
  br i1 %44, label %45, label %46

45:                                               ; preds = %37
  store i32 -32, ptr %5, align 4
  store i32 1, ptr %11, align 4
  br label %53

46:                                               ; preds = %37
  %47 = load ptr, ptr %10, align 8, !tbaa !8
  %48 = load ptr, ptr %7, align 8, !tbaa !8
  %49 = icmp ne ptr %47, %48
  br i1 %49, label %50, label %52

50:                                               ; preds = %46
  %51 = load ptr, ptr %10, align 8, !tbaa !8
  call void @free(ptr noundef %51) #7
  br label %52

52:                                               ; preds = %50, %46
  store i32 0, ptr %5, align 4
  store i32 1, ptr %11, align 4
  br label %53

53:                                               ; preds = %52, %45, %36, %29, %17
  call void @llvm.lifetime.end.p0(i64 8, ptr %10) #7
  %54 = load i32, ptr %5, align 4
  ret i32 %54
}